(lp0
(lp1
I4
aI13
aa(lp2
I4
aI524
aa(lp3
I6
aI1107
aa(lp4
I10
aI981
aa(lp5
I13
aI4
aa(lp6
I13
aI524
aa(lp7
I21
aI472
aa(lp8
I23
aI1160
aa(lp9
I27
aI931
aa(lp10
I30
aI734
aa(lp11
I35
aI885
aa(lp12
I36
aI192
aa(lp13
I38
aI1088
aa(lp14
I39
aI578
aa(lp15
I41
aI640
aa(lp16
I46
aI177
aa(lp17
I71
aI667
aa(lp18
I75
aI123
aa(lp19
I75
aI824
aa(lp20
I77
aI861
aa(lp21
I78
aI489
aa(lp22
I78
aI624
aa(lp23
I86
aI1001
aa(lp24
I91
aI107
aa(lp25
I91
aI315
aa(lp26
I91
aI820
aa(lp27
I92
aI168
aa(lp28
I101
aI315
aa(lp29
I107
aI91
aa(lp30
I107
aI820
aa(lp31
I115
aI725
aa(lp32
I117
aI534
aa(lp33
I117
aI751
aa(lp34
I122
aI568
aa(lp35
I122
aI1161
aa(lp36
I123
aI75
aa(lp37
I123
aI824
aa(lp38
I131
aI717
aa(lp39
I142
aI929
aa(lp40
I148
aI1025
aa(lp41
I157
aI612
aa(lp42
I168
aI92
aa(lp43
I175
aI706
aa(lp44
I177
aI46
aa(lp45
I182
aI1173
aa(lp46
I189
aI922
aa(lp47
I190
aI208
aa(lp48
I190
aI259
aa(lp49
I190
aI418
aa(lp50
I190
aI978
aa(lp51
I192
aI36
aa(lp52
I205
aI530
aa(lp53
I205
aI923
aa(lp54
I208
aI190
aa(lp55
I208
aI418
aa(lp56
I208
aI978
aa(lp57
I236
aI530
aa(lp58
I236
aI542
aa(lp59
I236
aI552
aa(lp60
I236
aI923
aa(lp61
I246
aI266
aa(lp62
I246
aI802
aa(lp63
I251
aI712
aa(lp64
I254
aI1003
aa(lp65
I259
aI190
aa(lp66
I259
aI307
aa(lp67
I259
aI978
aa(lp68
I266
aI246
aa(lp69
I266
aI802
aa(lp70
I276
aI1179
aa(lp71
I278
aI930
aa(lp72
I293
aI495
aa(lp73
I293
aI602
aa(lp74
I294
aI1163
aa(lp75
I298
aI1257
aa(lp76
I307
aI259
aa(lp77
I307
aI537
aa(lp78
I315
aI91
aa(lp79
I315
aI101
aa(lp80
I316
aI332
aa(lp81
I316
aI542
aa(lp82
I316
aI659
aa(lp83
I316
aI924
aa(lp84
I329
aI665
aa(lp85
I332
aI316
aa(lp86
I332
aI659
aa(lp87
I332
aI924
aa(lp88
I337
aI509
aa(lp89
I346
aI1137
aa(lp90
I347
aI842
aa(lp91
I353
aI1215
aa(lp92
I370
aI999
aa(lp93
I375
aI1015
aa(lp94
I383
aI409
aa(lp95
I386
aI1017
aa(lp96
I409
aI383
aa(lp97
I409
aI605
aa(lp98
I413
aI1226
aa(lp99
I418
aI190
aa(lp100
I418
aI208
aa(lp101
I418
aI753
aa(lp102
I418
aI978
aa(lp103
I420
aI1250
aa(lp104
I421
aI434
aa(lp105
I422
aI664
aa(lp106
I434
aI421
aa(lp107
I472
aI21
aa(lp108
I475
aI983
aa(lp109
I480
aI1090
aa(lp110
I485
aI604
aa(lp111
I485
aI614
aa(lp112
I486
aI797
aa(lp113
I486
aI815
aa(lp114
I489
aI78
aa(lp115
I489
aI624
aa(lp116
I495
aI293
aa(lp117
I495
aI514
aa(lp118
I495
aI602
aa(lp119
I500
aI973
aa(lp120
I509
aI337
aa(lp121
I514
aI495
aa(lp122
I524
aI4
aa(lp123
I524
aI13
aa(lp124
I525
aI762
aa(lp125
I530
aI205
aa(lp126
I530
aI236
aa(lp127
I530
aI923
aa(lp128
I534
aI117
aa(lp129
I537
aI307
aa(lp130
I542
aI236
aa(lp131
I542
aI316
aa(lp132
I542
aI924
aa(lp133
I542
aI1176
aa(lp134
I552
aI236
aa(lp135
I552
aI748
aa(lp136
I554
aI754
aa(lp137
I568
aI122
aa(lp138
I568
aI1161
aa(lp139
I569
aI1108
aa(lp140
I570
aI1047
aa(lp141
I575
aI700
aa(lp142
I578
aI39
aa(lp143
I600
aI1093
aa(lp144
I602
aI293
aa(lp145
I602
aI495
aa(lp146
I604
aI485
aa(lp147
I604
aI614
aa(lp148
I605
aI409
aa(lp149
I608
aI1080
aa(lp150
I610
aI1092
aa(lp151
I612
aI157
aa(lp152
I614
aI485
aa(lp153
I614
aI604
aa(lp154
I623
aI748
aa(lp155
I624
aI78
aa(lp156
I624
aI489
aa(lp157
I640
aI41
aa(lp158
I642
aI1099
aa(lp159
I644
aI1176
aa(lp160
I652
aI1221
aa(lp161
I659
aI316
aa(lp162
I659
aI332
aa(lp163
I659
aI924
aa(lp164
I664
aI422
aa(lp165
I665
aI329
aa(lp166
I667
aI71
aa(lp167
I688
aI933
aa(lp168
I689
aI1089
aa(lp169
I692
aI740
aa(lp170
I700
aI575
aa(lp171
I706
aI175
aa(lp172
I710
aI804
aa(lp173
I712
aI251
aa(lp174
I717
aI131
aa(lp175
I725
aI115
aa(lp176
I734
aI30
aa(lp177
I738
aI1143
aa(lp178
I740
aI692
aa(lp179
I742
aI1033
aa(lp180
I748
aI552
aa(lp181
I748
aI623
aa(lp182
I751
aI117
aa(lp183
I753
aI418
aa(lp184
I754
aI554
aa(lp185
I762
aI525
aa(lp186
I797
aI486
aa(lp187
I797
aI815
aa(lp188
I801
aI1039
aa(lp189
I802
aI246
aa(lp190
I802
aI266
aa(lp191
I804
aI710
aa(lp192
I815
aI486
aa(lp193
I815
aI797
aa(lp194
I820
aI91
aa(lp195
I820
aI107
aa(lp196
I824
aI75
aa(lp197
I824
aI123
aa(lp198
I842
aI347
aa(lp199
I842
aI1038
aa(lp200
I861
aI77
aa(lp201
I885
aI35
aa(lp202
I901
aI990
aa(lp203
I922
aI189
aa(lp204
I923
aI205
aa(lp205
I923
aI236
aa(lp206
I923
aI530
aa(lp207
I923
aI1176
aa(lp208
I924
aI316
aa(lp209
I924
aI332
aa(lp210
I924
aI542
aa(lp211
I924
aI659
aa(lp212
I929
aI142
aa(lp213
I930
aI278
aa(lp214
I931
aI27
aa(lp215
I931
aI1182
aa(lp216
I933
aI688
aa(lp217
I946
aI1003
aa(lp218
I973
aI500
aa(lp219
I978
aI190
aa(lp220
I978
aI208
aa(lp221
I978
aI259
aa(lp222
I978
aI418
aa(lp223
I981
aI10
aa(lp224
I983
aI475
aa(lp225
I983
aI1138
aa(lp226
I990
aI901
aa(lp227
I999
aI370
aa(lp228
I1001
aI86
aa(lp229
I1003
aI254
aa(lp230
I1003
aI946
aa(lp231
I1015
aI375
aa(lp232
I1017
aI386
aa(lp233
I1025
aI148
aa(lp234
I1033
aI742
aa(lp235
I1038
aI842
aa(lp236
I1039
aI801
aa(lp237
I1047
aI570
aa(lp238
I1058
aI1059
aa(lp239
I1059
aI1058
aa(lp240
I1080
aI608
aa(lp241
I1088
aI38
aa(lp242
I1089
aI689
aa(lp243
I1090
aI480
aa(lp244
I1092
aI610
aa(lp245
I1093
aI600
aa(lp246
I1099
aI642
aa(lp247
I1107
aI6
aa(lp248
I1108
aI569
aa(lp249
I1137
aI346
aa(lp250
I1138
aI983
aa(lp251
I1143
aI738
aa(lp252
I1160
aI23
aa(lp253
I1161
aI122
aa(lp254
I1161
aI568
aa(lp255
I1163
aI294
aa(lp256
I1173
aI182
aa(lp257
I1176
aI542
aa(lp258
I1176
aI644
aa(lp259
I1176
aI923
aa(lp260
I1179
aI276
aa(lp261
I1182
aI931
aa(lp262
I1207
aI1208
aa(lp263
I1208
aI1207
aa(lp264
I1215
aI353
aa(lp265
I1221
aI652
aa(lp266
I1226
aI413
aa(lp267
I1233
aI1234
aa(lp268
I1234
aI1233
aa(lp269
I1250
aI420
aa(lp270
I1257
aI298
aa.